; Function Attrs: mustprogress nounwind willreturn uwtable
define void @Abc_TruthStoreFree(ptr noundef captures(none) %0) local_unnamed_addr #0 {
  %2 = getelementptr inbounds nuw i8, ptr %0, i64 16
  %3 = load ptr, ptr %2, align 8, !tbaa !3
  %4 = load ptr, ptr %3, align 8, !tbaa !10
  tail call void @free(ptr noundef %4) #7
  %5 = load ptr, ptr %2, align 8, !tbaa !3
  tail call void @free(ptr noundef %5) #7
  tail call void @free(ptr noundef %0) #7
  ret void
}